	.file	"main.c"
__SP_H__ = 0x3e
__SP_L__ = 0x3d
__SREG__ = 0x3f
__tmp_reg__ = 0
__zero_reg__ = 1
	.text
.Ltext0:
	.cfi_sections	.debug_frame
	.section	.text.InitWatchdog,"ax",@progbits
.global	InitWatchdog
	.type	InitWatchdog, @function
InitWatchdog:
.LFB16:
	.file 1 "../src/main.c"
	.loc 1 44 0
	.cfi_startproc
/* prologue: function */
/* frame size = 0 */
/* stack size = 0 */
.L__stack_usage = 0
	.loc 1 45 0
/* #APP */
 ;  45 "../src/main.c" 1
	cli
 ;  0 "" 2
	.loc 1 46 0
 ;  46 "../src/main.c" 1
	wdr
 ;  0 "" 2
.LVL0:
/* #NOAPP */
.LBB6:
.LBB7:
	.file 2 "/usr/lib/avr/include/avr/wdt.h"
	.loc 2 473 0
	ldi r25,lo8(41)
	ldi r24,lo8(24)
/* #APP */
 ;  473 "/usr/lib/avr/include/avr/wdt.h" 1
	in __tmp_reg__,__SREG__
	cli
	wdr
	sts 96, r24
	out __SREG__,__tmp_reg__
	sts 96, r25
 	
 ;  0 "" 2
.LVL1:
/* #NOAPP */
	ret
.LBE7:
.LBE6:
	.cfi_endproc
.LFE16:
	.size	InitWatchdog, .-InitWatchdog
	.section	.text.InitGpio,"ax",@progbits
.global	InitGpio
	.type	InitGpio, @function
InitGpio:
.LFB17:
	.loc 1 51 0
	.cfi_startproc
/* prologue: function */
/* frame size = 0 */
/* stack size = 0 */
.L__stack_usage = 0
	.loc 1 52 0
	ldi r24,lo8(1)
	out 0x4,r24
	.loc 1 53 0
	out 0x5,__zero_reg__
	.loc 1 55 0
	ldi r24,lo8(16)
	out 0x7,r24
	.loc 1 56 0
	out 0x8,r24
	.loc 1 58 0
	ldi r24,lo8(64)
	out 0xa,r24
	.loc 1 59 0
	ldi r24,lo8(-1)
	out 0xb,r24
	.loc 1 60 0
	cbi 0xb,6
	ret
	.cfi_endproc
.LFE17:
	.size	InitGpio, .-InitGpio
	.section	.text.InitInterrupt,"ax",@progbits
.global	InitInterrupt
	.type	InitInterrupt, @function
InitInterrupt:
.LFB18:
	.loc 1 64 0
	.cfi_startproc
/* prologue: function */
/* frame size = 0 */
/* stack size = 0 */
.L__stack_usage = 0
	.loc 1 65 0
	ldi r30,lo8(105)
	ldi r31,0
	ld r24,Z
	andi r24,lo8(-2)
	st Z,r24
	.loc 1 67 0
	ld r24,Z
	ori r24,lo8(2)
	st Z,r24
	.loc 1 68 0
	sbi 0x1d,0
	ret
	.cfi_endproc
.LFE18:
	.size	InitInterrupt, .-InitInterrupt
	.section	.text.startup.main,"ax",@progbits
.global	main
	.type	main, @function
main:
.LFB15:
	.loc 1 18 0
	.cfi_startproc
/* prologue: function */
/* frame size = 0 */
/* stack size = 0 */
.L__stack_usage = 0
	.loc 1 20 0
	rcall InitWatchdog
.LVL2:
	.loc 1 21 0
	rcall InitGpio
.LVL3:
	.loc 1 22 0
	rcall InitInterrupt
.LVL4:
	.loc 1 24 0
/* #APP */
 ;  24 "../src/main.c" 1
	wdr
 ;  0 "" 2
	.loc 1 27 0
/* #NOAPP */
	ldi r24,lo8(MAC_ADDR)
	ldi r25,hi8(MAC_ADDR)
	rcall Enc28j60Init
.LVL5:
	.loc 1 28 0
/* #APP */
 ;  28 "../src/main.c" 1
	wdr
 ;  0 "" 2
	.loc 1 30 0
/* #NOAPP */
	rcall InitPhy
.LVL6:
	.loc 1 31 0
/* #APP */
 ;  31 "../src/main.c" 1
	wdr
 ;  0 "" 2
	.loc 1 34 0
/* #NOAPP */
	ldi r20,lo8(80)
	ldi r21,0
	ldi r22,lo8(IP_ADDR)
	ldi r23,hi8(IP_ADDR)
	ldi r24,lo8(MAC_ADDR)
	ldi r25,hi8(MAC_ADDR)
	rcall Init_ip_arp_udp_tcp
.LVL7:
	.loc 1 35 0
/* #APP */
 ;  35 "../src/main.c" 1
	wdr
 ;  0 "" 2
/* #NOAPP */
.LBB8:
.LBB9:
	.file 3 "../src/main.h"
	.loc 3 24 0
/* #APP */
 ;  24 "../src/main.h" 1
	sei
 ;  0 "" 2
/* #NOAPP */
.L5:
.LBE9:
.LBE8:
	.loc 1 39 0
/* #APP */
 ;  39 "../src/main.c" 1
	wdr
 ;  0 "" 2
/* #NOAPP */
	rjmp .L5
	.cfi_endproc
.LFE15:
	.size	main, .-main
	.section	.text.__vector_1,"ax",@progbits
.global	__vector_1
	.type	__vector_1, @function
__vector_1:
.LFB19:
	.loc 1 73 0
	.cfi_startproc
	push r1
	.cfi_def_cfa_offset 3
	.cfi_offset 1, -2
	push r0
	.cfi_def_cfa_offset 4
	.cfi_offset 0, -3
	in r0,__SREG__
	push r0
	clr __zero_reg__
	push r18
	.cfi_def_cfa_offset 5
	.cfi_offset 18, -4
	push r19
	.cfi_def_cfa_offset 6
	.cfi_offset 19, -5
	push r20
	.cfi_def_cfa_offset 7
	.cfi_offset 20, -6
	push r21
	.cfi_def_cfa_offset 8
	.cfi_offset 21, -7
	push r22
	.cfi_def_cfa_offset 9
	.cfi_offset 22, -8
	push r23
	.cfi_def_cfa_offset 10
	.cfi_offset 23, -9
	push r24
	.cfi_def_cfa_offset 11
	.cfi_offset 24, -10
	push r25
	.cfi_def_cfa_offset 12
	.cfi_offset 25, -11
	push r26
	.cfi_def_cfa_offset 13
	.cfi_offset 26, -12
	push r27
	.cfi_def_cfa_offset 14
	.cfi_offset 27, -13
	push r30
	.cfi_def_cfa_offset 15
	.cfi_offset 30, -14
	push r31
	.cfi_def_cfa_offset 16
	.cfi_offset 31, -15
/* prologue: Signal */
/* frame size = 0 */
/* stack size = 15 */
.L__stack_usage = 15
	.loc 1 74 0
	rcall LanTask
.LVL8:
/* epilogue start */
	.loc 1 75 0
	pop r31
	pop r30
	pop r27
	pop r26
	pop r25
	pop r24
	pop r23
	pop r22
	pop r21
	pop r20
	pop r19
	pop r18
	pop r0
	out __SREG__,r0
	pop r0
	pop r1
	reti
	.cfi_endproc
.LFE19:
	.size	__vector_1, .-__vector_1
	.section	.rodata
	.type	IP_ADDR, @object
	.size	IP_ADDR, 4
IP_ADDR:
	.byte	-64
	.byte	-88
	.byte	109
	.byte	14
	.type	MAC_ADDR, @object
	.size	MAC_ADDR, 6
MAC_ADDR:
	.byte	0
	.byte	33
	.byte	104
	.byte	51
	.byte	-42
	.byte	48
	.text
.Letext0:
	.file 4 "/usr/lib/avr/include/stdint.h"